libnutclient.so.2:_ZN3nut11IOExceptionD0Ev
libnutclient.so.2:_ZN3nut11IOExceptionD1Ev
libnutclient.so.2:_ZN3nut11IOExceptionD2Ev
libnutclient.so.2:_ZN3nut12NutExceptionD0Ev
libnutclient.so.2:_ZN3nut12NutExceptionD1Ev
libnutclient.so.2:_ZN3nut12NutExceptionD2Ev
libnutclient.so.2:_ZN3nut15SystemException3errB5cxx11Ev
libnutclient.so.2:_ZN3nut15SystemExceptionC1Ev
libnutclient.so.2:_ZN3nut15SystemExceptionC2Ev
libnutclient.so.2:_ZN3nut15SystemExceptionD0Ev
libnutclient.so.2:_ZN3nut15SystemExceptionD1Ev
libnutclient.so.2:_ZN3nut15SystemExceptionD2Ev
libnutclient.so.2:_ZN3nut16TimeoutExceptionD0Ev
libnutclient.so.2:_ZN3nut16TimeoutExceptionD1Ev
libnutclient.so.2:_ZN3nut16TimeoutExceptionD2Ev
libnutclient.so.2:_ZN3nut20UnknownHostExceptionD0Ev
libnutclient.so.2:_ZN3nut20UnknownHostExceptionD1Ev
libnutclient.so.2:_ZN3nut20UnknownHostExceptionD2Ev
libnutclient.so.2:_ZN3nut21NotConnectedExceptionD0Ev
libnutclient.so.2:_ZN3nut21NotConnectedExceptionD1Ev
libnutclient.so.2:_ZN3nut21NotConnectedExceptionD2Ev
libnutclient.so.2:_ZN3nut6Client10getDevicesEv
libnutclient.so.2:_ZN3nut6Client10hasFeatureERKNSt7__cxx1112basic_stringIcSt11char_traitsIcESaIcEEE
libnutclient.so.2:_ZN3nut6Client16hasDeviceCommandERKNSt7__cxx1112basic_stringIcSt11char_traitsIcESaIcEEES8_
libnutclient.so.2:_ZN3nut6Client17hasDeviceVariableERKNSt7__cxx1112basic_stringIcSt11char_traitsIcESaIcEEES8_
libnutclient.so.2:_ZN3nut6Client23getDeviceVariableValuesERKNSt7__cxx1112basic_stringIcSt11char_traitsIcESaIcEEE
libnutclient.so.2:_ZN3nut6Client24getDevicesVariableValuesERKSt3setINSt7__cxx1112basic_stringIcSt11char_traitsIcESaIcEEESt4lessIS7_ESaIS7_EE
libnutclient.so.2:_ZN3nut6Client9getDeviceERKNSt7__cxx1112basic_stringIcSt11char_traitsIcESaIcEEE
libnutclient.so.2:_ZN3nut6Client9hasDeviceERKNSt7__cxx1112basic_stringIcSt11char_traitsIcESaIcEEE
libnutclient.so.2:_ZN3nut6ClientC1Ev
libnutclient.so.2:_ZN3nut6ClientC2Ev
libnutclient.so.2:_ZN3nut6ClientD0Ev
libnutclient.so.2:_ZN3nut6ClientD1Ev
libnutclient.so.2:_ZN3nut6ClientD2Ev
libnutclient.so.2:_ZN3nut6Device10getClientsB5cxx11Ev
libnutclient.so.2:_ZN3nut6Device10getCommandERKNSt7__cxx1112basic_stringIcSt11char_traitsIcESaIcEEE
libnutclient.so.2:_ZN3nut6Device11getCommandsEv
libnutclient.so.2:_ZN3nut6Device11getVariableERKNSt7__cxx1112basic_stringIcSt11char_traitsIcESaIcEEE
libnutclient.so.2:_ZN3nut6Device11setVariableERKNSt7__cxx1112basic_stringIcSt11char_traitsIcESaIcEEERKSt6vectorIS6_SaIS6_EE
libnutclient.so.2:_ZN3nut6Device11setVariableERKNSt7__cxx1112basic_stringIcSt11char_traitsIcESaIcEEES8_
libnutclient.so.2:_ZN3nut6Device12getNumLoginsEv
libnutclient.so.2:_ZN3nut6Device12getVariablesEv
libnutclient.so.2:_ZN3nut6Device14executeCommandERKNSt7__cxx1112basic_stringIcSt11char_traitsIcESaIcEEES8_
libnutclient.so.2:_ZN3nut6Device14forcedShutdownEv
libnutclient.so.2:_ZN3nut6Device14getDescriptionB5cxx11Ev
libnutclient.so.2:_ZN3nut6Device14getRWVariablesEv
libnutclient.so.2:_ZN3nut6Device15getCommandNamesB5cxx11Ev
libnutclient.so.2:_ZN3nut6Device16getVariableNamesB5cxx11Ev
libnutclient.so.2:_ZN3nut6Device16getVariableValueERKNSt7__cxx1112basic_stringIcSt11char_traitsIcESaIcEEE
libnutclient.so.2:_ZN3nut6Device17getVariableValuesB5cxx11Ev
libnutclient.so.2:_ZN3nut6Device18getRWVariableNamesB5cxx11Ev
libnutclient.so.2:_ZN3nut6Device5loginEv
libnutclient.so.2:_ZN3nut6Device6masterEv
libnutclient.so.2:_ZN3nut6Device7primaryEv
libnutclient.so.2:_ZN3nut6Device9getClientEv
libnutclient.so.2:_ZN3nut6DeviceC1EPNS_6ClientERKNSt7__cxx1112basic_stringIcSt11char_traitsIcESaIcEEE
libnutclient.so.2:_ZN3nut6DeviceC1ERKS0_
libnutclient.so.2:_ZN3nut6DeviceC2EPNS_6ClientERKNSt7__cxx1112basic_stringIcSt11char_traitsIcESaIcEEE
libnutclient.so.2:_ZN3nut6DeviceC2ERKS0_
libnutclient.so.2:_ZN3nut6DeviceD1Ev
libnutclient.so.2:_ZN3nut6DeviceD2Ev
libnutclient.so.2:_ZN3nut6DeviceaSERKS0_
libnutclient.so.2:_ZN3nut7Command14getDescriptionB5cxx11Ev
libnutclient.so.2:_ZN3nut7Command7executeERKNSt7__cxx1112basic_stringIcSt11char_traitsIcESaIcEEE
libnutclient.so.2:_ZN3nut7Command9getDeviceEv
libnutclient.so.2:_ZN3nut7CommandC1EPNS_6DeviceERKNSt7__cxx1112basic_stringIcSt11char_traitsIcESaIcEEE
libnutclient.so.2:_ZN3nut7CommandC1ERKS0_
libnutclient.so.2:_ZN3nut7CommandC2EPNS_6DeviceERKNSt7__cxx1112basic_stringIcSt11char_traitsIcESaIcEEE
libnutclient.so.2:_ZN3nut7CommandC2ERKS0_
libnutclient.so.2:_ZN3nut7CommandD1Ev
libnutclient.so.2:_ZN3nut7CommandD2Ev
libnutclient.so.2:_ZN3nut7CommandaSERKS0_
libnutclient.so.2:_ZN3nut8Variable14getDescriptionB5cxx11Ev
libnutclient.so.2:_ZN3nut8Variable8getValueB5cxx11Ev
libnutclient.so.2:_ZN3nut8Variable8setValueERKNSt7__cxx1112basic_stringIcSt11char_traitsIcESaIcEEE
libnutclient.so.2:_ZN3nut8Variable9getDeviceEv
libnutclient.so.2:_ZN3nut8Variable9setValuesERKSt6vectorINSt7__cxx1112basic_stringIcSt11char_traitsIcESaIcEEESaIS7_EE
libnutclient.so.2:_ZN3nut8VariableC1EPNS_6DeviceERKNSt7__cxx1112basic_stringIcSt11char_traitsIcESaIcEEE
libnutclient.so.2:_ZN3nut8VariableC1ERKS0_
libnutclient.so.2:_ZN3nut8VariableC2EPNS_6DeviceERKNSt7__cxx1112basic_stringIcSt11char_traitsIcESaIcEEE
libnutclient.so.2:_ZN3nut8VariableC2ERKS0_
libnutclient.so.2:_ZN3nut8VariableD1Ev
libnutclient.so.2:_ZN3nut8VariableD2Ev
libnutclient.so.2:_ZN3nut8VariableaSERKS0_
libnutclient.so.2:_ZN3nut8internal6Socket10disconnectEv
libnutclient.so.2:_ZN3nut8internal6Socket10setTimeoutEl
libnutclient.so.2:_ZN3nut8internal6Socket15setDebugConnectEb
libnutclient.so.2:_ZN3nut8internal6Socket4readB5cxx11Ev
libnutclient.so.2:_ZN3nut8internal6Socket4readEPvm
libnutclient.so.2:_ZN3nut8internal6Socket5writeEPKvm
libnutclient.so.2:_ZN3nut8internal6Socket5writeERKNSt7__cxx1112basic_stringIcSt11char_traitsIcESaIcEEE
libnutclient.so.2:_ZN3nut8internal6Socket7connectERKNSt7__cxx1112basic_stringIcSt11char_traitsIcESaIcEEEt
libnutclient.so.2:_ZN3nut8internal6SocketC1Ev
libnutclient.so.2:_ZN3nut8internal6SocketC2Ev
libnutclient.so.2:_ZN3nut8internal6SocketD1Ev
libnutclient.so.2:_ZN3nut8internal6SocketD2Ev
libnutclient.so.2:_ZN3nut9TcpClient10disconnectEv
libnutclient.so.2:_ZN3nut9TcpClient10setFeatureERKNSt7__cxx1112basic_stringIcSt11char_traitsIcESaIcEEEb
libnutclient.so.2:_ZN3nut9TcpClient10setTimeoutEl
libnutclient.so.2:_ZN3nut9TcpClient11detectErrorERKNSt7__cxx1112basic_stringIcSt11char_traitsIcESaIcEEE
libnutclient.so.2:_ZN3nut9TcpClient11deviceLoginERKNSt7__cxx1112basic_stringIcSt11char_traitsIcESaIcEEE
libnutclient.so.2:_ZN3nut9TcpClient12authenticateERKNSt7__cxx1112basic_stringIcSt11char_traitsIcESaIcEEES8_
libnutclient.so.2:_ZN3nut9TcpClient12deviceMasterERKNSt7__cxx1112basic_stringIcSt11char_traitsIcESaIcEEE
libnutclient.so.2:_ZN3nut9TcpClient13devicePrimaryERKNSt7__cxx1112basic_stringIcSt11char_traitsIcESaIcEEE
libnutclient.so.2:_ZN3nut9TcpClient14getDeviceNamesB5cxx11Ev
libnutclient.so.2:_ZN3nut9TcpClient15setDebugConnectEb
libnutclient.so.2:_ZN3nut9TcpClient16deviceGetClientsERKNSt7__cxx1112basic_stringIcSt11char_traitsIcESaIcEEE
libnutclient.so.2:_ZN3nut9TcpClient16isFeatureEnabledERKNSt7__cxx1112basic_stringIcSt11char_traitsIcESaIcEEE
libnutclient.so.2:_ZN3nut9TcpClient16sendAsyncQueriesERKSt6vectorINSt7__cxx1112basic_stringIcSt11char_traitsIcESaIcEEESaIS7_EE
libnutclient.so.2:_ZN3nut9TcpClient17getTrackingResultERKNSt7__cxx1112basic_stringIcSt11char_traitsIcESaIcEEE
libnutclient.so.2:_ZN3nut9TcpClient17listDeviceClientsB5cxx11Ev
libnutclient.so.2:_ZN3nut9TcpClient17sendTrackingQueryERKNSt7__cxx1112basic_stringIcSt11char_traitsIcESaIcEEE
libnutclient.so.2:_ZN3nut9TcpClient17setDeviceVariableERKNSt7__cxx1112basic_stringIcSt11char_traitsIcESaIcEEES8_RKSt6vectorIS6_SaIS6_EE
libnutclient.so.2:_ZN3nut9TcpClient17setDeviceVariableERKNSt7__cxx1112basic_stringIcSt11char_traitsIcESaIcEEES8_S8_
libnutclient.so.2:_ZN3nut9TcpClient18deviceGetNumLoginsERKNSt7__cxx1112basic_stringIcSt11char_traitsIcESaIcEEE
libnutclient.so.2:_ZN3nut9TcpClient20deviceForcedShutdownERKNSt7__cxx1112basic_stringIcSt11char_traitsIcESaIcEEE
libnutclient.so.2:_ZN3nut9TcpClient20executeDeviceCommandERKNSt7__cxx1112basic_stringIcSt11char_traitsIcESaIcEEES8_S8_
libnutclient.so.2:_ZN3nut9TcpClient20getDeviceDescriptionERKNSt7__cxx1112basic_stringIcSt11char_traitsIcESaIcEEE
libnutclient.so.2:_ZN3nut9TcpClient21getDeviceCommandNamesERKNSt7__cxx1112basic_stringIcSt11char_traitsIcESaIcEEE
libnutclient.so.2:_ZN3nut9TcpClient22getDeviceVariableNamesERKNSt7__cxx1112basic_stringIcSt11char_traitsIcESaIcEEE
libnutclient.so.2:_ZN3nut9TcpClient22getDeviceVariableValueERKNSt7__cxx1112basic_stringIcSt11char_traitsIcESaIcEEES8_
libnutclient.so.2:_ZN3nut9TcpClient23getDeviceVariableValuesERKNSt7__cxx1112basic_stringIcSt11char_traitsIcESaIcEEE
libnutclient.so.2:_ZN3nut9TcpClient24getDeviceRWVariableNamesERKNSt7__cxx1112basic_stringIcSt11char_traitsIcESaIcEEE
libnutclient.so.2:_ZN3nut9TcpClient24getDevicesVariableValuesERKSt3setINSt7__cxx1112basic_stringIcSt11char_traitsIcESaIcEEESt4lessIS7_ESaIS7_EE
libnutclient.so.2:_ZN3nut9TcpClient27getDeviceCommandDescriptionERKNSt7__cxx1112basic_stringIcSt11char_traitsIcESaIcEEES8_
libnutclient.so.2:_ZN3nut9TcpClient28getDeviceVariableDescriptionERKNSt7__cxx1112basic_stringIcSt11char_traitsIcESaIcEEES8_
libnutclient.so.2:_ZN3nut9TcpClient3getERKNSt7__cxx1112basic_stringIcSt11char_traitsIcESaIcEEES8_
libnutclient.so.2:_ZN3nut9TcpClient4listERKNSt7__cxx1112basic_stringIcSt11char_traitsIcESaIcEEES8_
libnutclient.so.2:_ZN3nut9TcpClient6escapeERKNSt7__cxx1112basic_stringIcSt11char_traitsIcESaIcEEE
libnutclient.so.2:_ZN3nut9TcpClient6logoutEv
libnutclient.so.2:_ZN3nut9TcpClient7connectERKNSt7__cxx1112basic_stringIcSt11char_traitsIcESaIcEEEt
libnutclient.so.2:_ZN3nut9TcpClient7connectEv
libnutclient.so.2:_ZN3nut9TcpClient7explodeERKNSt7__cxx1112basic_stringIcSt11char_traitsIcESaIcEEEm
libnutclient.so.2:_ZN3nut9TcpClient9getDeviceERKNSt7__cxx1112basic_stringIcSt11char_traitsIcESaIcEEE
libnutclient.so.2:_ZN3nut9TcpClient9parseListERKNSt7__cxx1112basic_stringIcSt11char_traitsIcESaIcEEE
libnutclient.so.2:_ZN3nut9TcpClient9sendQueryERKNSt7__cxx1112basic_stringIcSt11char_traitsIcESaIcEEE
libnutclient.so.2:_ZN3nut9TcpClientC1ERKNSt7__cxx1112basic_stringIcSt11char_traitsIcESaIcEEEt
libnutclient.so.2:_ZN3nut9TcpClientC1Ev
libnutclient.so.2:_ZN3nut9TcpClientC2ERKNSt7__cxx1112basic_stringIcSt11char_traitsIcESaIcEEEt
libnutclient.so.2:_ZN3nut9TcpClientC2Ev
libnutclient.so.2:_ZN3nut9TcpClientD0Ev
libnutclient.so.2:_ZN3nut9TcpClientD1Ev
libnutclient.so.2:_ZN3nut9TcpClientD2Ev
libnutclient.so.2:_ZNK3nut6Device4isOkEv
libnutclient.so.2:_ZNK3nut6Device7getNameB5cxx11Ev
libnutclient.so.2:_ZNK3nut6Device9getClientEv
libnutclient.so.2:_ZNK3nut6DevicecvbEv
libnutclient.so.2:_ZNK3nut6DeviceeqERKS0_
libnutclient.so.2:_ZNK3nut6DeviceltERKS0_
libnutclient.so.2:_ZNK3nut6DevicentEv
libnutclient.so.2:_ZNK3nut7Command4isOkEv
libnutclient.so.2:_ZNK3nut7Command7getNameB5cxx11Ev
libnutclient.so.2:_ZNK3nut7Command9getDeviceEv
libnutclient.so.2:_ZNK3nut7CommandcvbEv
libnutclient.so.2:_ZNK3nut7CommandeqERKS0_
libnutclient.so.2:_ZNK3nut7CommandltERKS0_
libnutclient.so.2:_ZNK3nut7CommandntEv
libnutclient.so.2:_ZNK3nut8Variable4isOkEv
libnutclient.so.2:_ZNK3nut8Variable7getNameB5cxx11Ev
libnutclient.so.2:_ZNK3nut8Variable9getDeviceEv
libnutclient.so.2:_ZNK3nut8VariablecvbEv
libnutclient.so.2:_ZNK3nut8VariableeqERKS0_
libnutclient.so.2:_ZNK3nut8VariableltERKS0_
libnutclient.so.2:_ZNK3nut8VariablentEv
libnutclient.so.2:_ZNK3nut8internal6Socket11isConnectedEv
libnutclient.so.2:_ZNK3nut9TcpClient10getTimeoutEv
libnutclient.so.2:_ZNK3nut9TcpClient11isConnectedEv
libnutclient.so.2:_ZNK3nut9TcpClient7getHostB5cxx11Ev
libnutclient.so.2:_ZNK3nut9TcpClient7getPortEv
libnutclient.so.2:altpidpath
libnutclient.so.2:background
libnutclient.so.2:become_user
libnutclient.so.2:check_unix_socket_filename
libnutclient.so.2:chroot_start
libnutclient.so.2:compile_regex
libnutclient.so.2:confpath
libnutclient.so.2:dflt_statepath
libnutclient.so.2:difftimespec
libnutclient.so.2:difftimeval
libnutclient.so.2:fatal_with_errno
libnutclient.so.2:fatalx
libnutclient.so.2:get_libname
libnutclient.so.2:get_max_pid_t
libnutclient.so.2:get_user_pwent
libnutclient.so.2:match_regex
libnutclient.so.2:match_regex_hex
libnutclient.so.2:nut_prepare_search_paths
libnutclient.so.2:nut_report_config_flags
libnutclient.so.2:nutclient_authenticate
libnutclient.so.2:nutclient_destroy
libnutclient.so.2:nutclient_device_forced_shutdown
libnutclient.so.2:nutclient_device_login
libnutclient.so.2:nutclient_device_master
libnutclient.so.2:nutclient_device_primary
libnutclient.so.2:nutclient_execute_device_command
libnutclient.so.2:nutclient_get_device_command_description
libnutclient.so.2:nutclient_get_device_commands
libnutclient.so.2:nutclient_get_device_description
libnutclient.so.2:nutclient_get_device_num_logins
libnutclient.so.2:nutclient_get_device_rw_variables
libnutclient.so.2:nutclient_get_device_variable_description
libnutclient.so.2:nutclient_get_device_variable_values
libnutclient.so.2:nutclient_get_device_variables
libnutclient.so.2:nutclient_get_devices
libnutclient.so.2:nutclient_has_device
libnutclient.so.2:nutclient_has_device_command
libnutclient.so.2:nutclient_has_device_variable
libnutclient.so.2:nutclient_logout
libnutclient.so.2:nutclient_set_device_variable_value
libnutclient.so.2:nutclient_set_device_variable_values
libnutclient.so.2:nutclient_tcp_create_client
libnutclient.so.2:nutclient_tcp_disconnect
libnutclient.so.2:nutclient_tcp_get_timeout
libnutclient.so.2:nutclient_tcp_is_connected
libnutclient.so.2:nutclient_tcp_reconnect
libnutclient.so.2:nutclient_tcp_set_timeout
libnutclient.so.2:open_syslog
libnutclient.so.2:parsepid
libnutclient.so.2:pconf_char
libnutclient.so.2:pconf_encode
libnutclient.so.2:pconf_file_begin
libnutclient.so.2:pconf_file_next
libnutclient.so.2:pconf_finish
libnutclient.so.2:pconf_init
libnutclient.so.2:pconf_line
libnutclient.so.2:pconf_parse_error
libnutclient.so.2:s_upsdebug_ascii
libnutclient.so.2:s_upsdebug_hex
libnutclient.so.2:s_upsdebug_with_errno
libnutclient.so.2:s_upsdebugx
libnutclient.so.2:select_read
libnutclient.so.2:select_write
libnutclient.so.2:sendsignal
libnutclient.so.2:sendsignalfn
libnutclient.so.2:sendsignalpid
libnutclient.so.2:set_close_on_exec
libnutclient.so.2:snprintfcat
libnutclient.so.2:st_tree_node_compare_timestamp
libnutclient.so.2:state_addcmd
libnutclient.so.2:state_addenum
libnutclient.so.2:state_addrange
libnutclient.so.2:state_cmdfree
libnutclient.so.2:state_delcmd
libnutclient.so.2:state_delenum
libnutclient.so.2:state_delinfo
libnutclient.so.2:state_delinfo_olderthan
libnutclient.so.2:state_delrange
libnutclient.so.2:state_get_timestamp
libnutclient.so.2:state_getaux
libnutclient.so.2:state_getenumlist
libnutclient.so.2:state_getflags
libnutclient.so.2:state_getinfo
libnutclient.so.2:state_getrangelist
libnutclient.so.2:state_infofree
libnutclient.so.2:state_setaux
libnutclient.so.2:state_setflags
libnutclient.so.2:state_setinfo
libnutclient.so.2:state_tree_find
libnutclient.so.2:str_ends_with
libnutclient.so.2:str_is_double
libnutclient.so.2:str_is_double_strict
libnutclient.so.2:str_is_int
libnutclient.so.2:str_is_int_strict
libnutclient.so.2:str_is_long
libnutclient.so.2:str_is_long_strict
libnutclient.so.2:str_is_short
libnutclient.so.2:str_is_short_strict
libnutclient.so.2:str_is_uint
libnutclient.so.2:str_is_uint_strict
libnutclient.so.2:str_is_ulong
libnutclient.so.2:str_is_ulong_strict
libnutclient.so.2:str_is_ushort
libnutclient.so.2:str_is_ushort_strict
libnutclient.so.2:str_ltrim
libnutclient.so.2:str_ltrim_m
libnutclient.so.2:str_ltrim_space
libnutclient.so.2:str_rtrim
libnutclient.so.2:str_rtrim_m
libnutclient.so.2:str_rtrim_space
libnutclient.so.2:str_to_double
libnutclient.so.2:str_to_double_strict
libnutclient.so.2:str_to_int
libnutclient.so.2:str_to_int_strict
libnutclient.so.2:str_to_long
libnutclient.so.2:str_to_long_strict
libnutclient.so.2:str_to_short
libnutclient.so.2:str_to_short_strict
libnutclient.so.2:str_to_uint
libnutclient.so.2:str_to_uint_strict
libnutclient.so.2:str_to_ulong
libnutclient.so.2:str_to_ulong_strict
libnutclient.so.2:str_to_ushort
libnutclient.so.2:str_to_ushort_strict
libnutclient.so.2:str_trim
libnutclient.so.2:str_trim_m
libnutclient.so.2:str_trim_space
libnutclient.so.2:strarr_alloc
libnutclient.so.2:strarr_free
libnutclient.so.2:strcmp_null
libnutclient.so.2:stringset_to_strarr
libnutclient.so.2:stringvector_to_strarr
libnutclient.so.2:syslogbit_set
libnutclient.so.2:upsdebugx_report_search_paths
libnutclient.so.2:upslog_with_errno
libnutclient.so.2:upslogx
libnutclient.so.2:upsnotify
libnutclient.so.2:writepid
libnutclient.so.2:xbasename
libnutclient.so.2:xcalloc
libnutclient.so.2:xmalloc
libnutclient.so.2:xrealloc
libnutclient.so.2:xstrdup
libnutclientstub.so.1:_ZN3nut13MemClientStub10setFeatureERKNSt7__cxx1112basic_stringIcSt11char_traitsIcESaIcEEEb
libnutclientstub.so.1:_ZN3nut13MemClientStub11deviceLoginERKNSt7__cxx1112basic_stringIcSt11char_traitsIcESaIcEEE
libnutclientstub.so.1:_ZN3nut13MemClientStub12deviceMasterERKNSt7__cxx1112basic_stringIcSt11char_traitsIcESaIcEEE
libnutclientstub.so.1:_ZN3nut13MemClientStub13devicePrimaryERKNSt7__cxx1112basic_stringIcSt11char_traitsIcESaIcEEE
libnutclientstub.so.1:_ZN3nut13MemClientStub14getDeviceNamesB5cxx11Ev
libnutclientstub.so.1:_ZN3nut13MemClientStub16deviceGetClientsERKNSt7__cxx1112basic_stringIcSt11char_traitsIcESaIcEEE
libnutclientstub.so.1:_ZN3nut13MemClientStub16isFeatureEnabledERKNSt7__cxx1112basic_stringIcSt11char_traitsIcESaIcEEE
libnutclientstub.so.1:_ZN3nut13MemClientStub17getTrackingResultERKNSt7__cxx1112basic_stringIcSt11char_traitsIcESaIcEEE
libnutclientstub.so.1:_ZN3nut13MemClientStub17listDeviceClientsB5cxx11Ev
libnutclientstub.so.1:_ZN3nut13MemClientStub17setDeviceVariableERKNSt7__cxx1112basic_stringIcSt11char_traitsIcESaIcEEES8_RKSt6vectorIS6_SaIS6_EE
libnutclientstub.so.1:_ZN3nut13MemClientStub17setDeviceVariableERKNSt7__cxx1112basic_stringIcSt11char_traitsIcESaIcEEES8_S8_
libnutclientstub.so.1:_ZN3nut13MemClientStub18deviceGetNumLoginsERKNSt7__cxx1112basic_stringIcSt11char_traitsIcESaIcEEE
libnutclientstub.so.1:_ZN3nut13MemClientStub20deviceForcedShutdownERKNSt7__cxx1112basic_stringIcSt11char_traitsIcESaIcEEE
libnutclientstub.so.1:_ZN3nut13MemClientStub20executeDeviceCommandERKNSt7__cxx1112basic_stringIcSt11char_traitsIcESaIcEEES8_S8_
libnutclientstub.so.1:_ZN3nut13MemClientStub20getDeviceDescriptionERKNSt7__cxx1112basic_stringIcSt11char_traitsIcESaIcEEE
libnutclientstub.so.1:_ZN3nut13MemClientStub21getDeviceCommandNamesERKNSt7__cxx1112basic_stringIcSt11char_traitsIcESaIcEEE
libnutclientstub.so.1:_ZN3nut13MemClientStub22getDeviceVariableNamesERKNSt7__cxx1112basic_stringIcSt11char_traitsIcESaIcEEE
libnutclientstub.so.1:_ZN3nut13MemClientStub22getDeviceVariableValueERKNSt7__cxx1112basic_stringIcSt11char_traitsIcESaIcEEES8_
libnutclientstub.so.1:_ZN3nut13MemClientStub23getDeviceVariableValuesERKNSt7__cxx1112basic_stringIcSt11char_traitsIcESaIcEEE
libnutclientstub.so.1:_ZN3nut13MemClientStub24getDeviceRWVariableNamesERKNSt7__cxx1112basic_stringIcSt11char_traitsIcESaIcEEE
libnutclientstub.so.1:_ZN3nut13MemClientStub24getDevicesVariableValuesERKSt3setINSt7__cxx1112basic_stringIcSt11char_traitsIcESaIcEEESt4lessIS7_ESaIS7_EE
libnutclientstub.so.1:_ZN3nut13MemClientStub27getDeviceCommandDescriptionERKNSt7__cxx1112basic_stringIcSt11char_traitsIcESaIcEEES8_
libnutclientstub.so.1:_ZN3nut13MemClientStub28getDeviceVariableDescriptionERKNSt7__cxx1112basic_stringIcSt11char_traitsIcESaIcEEES8_
libnutclientstub.so.1:_ZN3nut13MemClientStub9getDeviceERKNSt7__cxx1112basic_stringIcSt11char_traitsIcESaIcEEE
libnutclientstub.so.1:nutclient_mem_create_client
libnutscan.so.2:nut_prepare_search_paths
libnutscan.so.2:nut_report_config_flags
libnutscan.so.2:nutscan_add_device_to_device
libnutscan.so.2:nutscan_add_option_to_device
libnutscan.so.2:nutscan_cidr_to_ip
libnutscan.so.2:nutscan_display_parsable
libnutscan.so.2:nutscan_display_sanity_check
libnutscan.so.2:nutscan_display_sanity_check_serial
libnutscan.so.2:nutscan_display_ups_conf
libnutscan.so.2:nutscan_display_ups_conf_with_sanity_check
libnutscan.so.2:nutscan_free
libnutscan.so.2:nutscan_free_device
libnutscan.so.2:nutscan_get_serial_ports_list
libnutscan.so.2:nutscan_init
libnutscan.so.2:nutscan_ip_iter_inc
libnutscan.so.2:nutscan_ip_iter_init
libnutscan.so.2:nutscan_load_upsclient_library
libnutscan.so.2:nutscan_new_device
libnutscan.so.2:nutscan_rewind_device
libnutscan.so.2:nutscan_scan_avahi
libnutscan.so.2:nutscan_scan_eaton_serial
libnutscan.so.2:nutscan_scan_ipmi
libnutscan.so.2:nutscan_scan_nut
libnutscan.so.2:nutscan_scan_snmp
libnutscan.so.2:nutscan_scan_usb
libnutscan.so.2:nutscan_scan_xml_http_range
libnutscan.so.2:nutscan_semaphore
libnutscan.so.2:s_upsdebugx
libnutscan.so.2:upsdebugx_report_search_paths
libupsclient.so.6:upscli_add_host_cert
libupsclient.so.6:upscli_cleanup
libupsclient.so.6:upscli_connect
libupsclient.so.6:upscli_disconnect
libupsclient.so.6:upscli_fd
libupsclient.so.6:upscli_get
libupsclient.so.6:upscli_init
libupsclient.so.6:upscli_list_next
libupsclient.so.6:upscli_list_start
libupsclient.so.6:upscli_readline
libupsclient.so.6:upscli_readline_timeout
libupsclient.so.6:upscli_sendline
libupsclient.so.6:upscli_sendline_timeout
libupsclient.so.6:upscli_splitaddr
libupsclient.so.6:upscli_splitname
libupsclient.so.6:upscli_ssl
libupsclient.so.6:upscli_strerror
libupsclient.so.6:upscli_tryconnect
libupsclient.so.6:upscli_upserror
